target datalayout = "e-m:e-p270:32:32-p271:32:32-p272:64:64-i64:64-i128:128-f80:128-n8:16:32:64-S128"
target triple = "x86_64-pc-linux-gnu"

%"class.icu_77::Hashtable" = type { ptr, %struct.UHashtable }
%struct.UHashtable = type { ptr, ptr, ptr, ptr, ptr, ptr, i32, i32, i32, i32, float, float, i8, i8 }
%"class.icu_77::TransliterationRuleData" = type { [8 x i8], %"class.icu_77::TransliterationRuleSet", %"class.icu_77::Hashtable", ptr, i8, i16, i32 }
%"class.icu_77::TransliterationRuleSet" = type { ptr, ptr, ptr, [257 x i32], i32 }
%"class.icu_77::UVector" = type { %"class.icu_77::UObject", i32, i32, ptr, ptr, ptr }
%"class.icu_77::UObject" = type { ptr }
%"class.icu_77::UnicodeString" = type { %"class.icu_77::Replaceable", %"union.icu_77::UnicodeString::StackBufferOrFields" }
%"class.icu_77::Replaceable" = type { %"class.icu_77::UObject" }
%"union.icu_77::UnicodeString::StackBufferOrFields" = type { %struct.anon.0, [32 x i8] }
%struct.anon.0 = type { i16, i32, i32, ptr }
%"class.icu_77::TransliteratorParser" = type <{ [8 x i8], %"class.icu_77::UVector", %"class.icu_77::UVector", ptr, ptr, i32, %struct.UParseError, [4 x i8], ptr, %"class.icu_77::UVector", %"class.icu_77::Hashtable", %"class.icu_77::UnicodeString", %"class.icu_77::UVector", i16, i16, [4 x i8], %"class.icu_77::UnicodeString", i16, [6 x i8] }>
%struct.UParseError = type { i32, i32, [16 x i16], [16 x i16] }

; Function Attrs: inlinehint mustprogress nounwind uwtable
define internal noundef signext i8 @_ZL9U_SUCCESS10UErrorCode(i32 noundef %0) #2 {
  %2 = alloca i32, align 4
  store i32 %0, ptr %2, align 4, !tbaa !15
  %3 = load i32, ptr %2, align 4, !tbaa !15
  %4 = icmp sle i32 %3, 0
  %5 = zext i1 %4 to i8
  ret i8 %5
}

; Function Attrs: inlinehint mustprogress nounwind uwtable
define internal noundef signext i8 @_ZL9U_FAILURE10UErrorCode(i32 noundef %0) #2 {
  %2 = alloca i32, align 4
  store i32 %0, ptr %2, align 4, !tbaa !15
  %3 = load i32, ptr %2, align 4, !tbaa !15
  %4 = icmp sgt i32 %3, 0
  %5 = zext i1 %4 to i8
  ret i8 %5
}

; Function Attrs: inlinehint mustprogress nounwind uwtable
define linkonce_odr noundef i32 @_ZNK6icu_777UVector4sizeEv(ptr noundef nonnull align 8 dereferenceable(40) %0) #2 comdat align 2 {
  %2 = alloca ptr, align 8
  store ptr %0, ptr %2, align 8, !tbaa !27
  %3 = load ptr, ptr %2, align 8
  %4 = getelementptr inbounds nuw %"class.icu_77::UVector", ptr %3, i32 0, i32 1
  %5 = load i32, ptr %4, align 8, !tbaa !57
  ret i32 %5
}

; Function Attrs: mustprogress uwtable
define void @_ZN6icu_7720TransliteratorParser16setSegmentObjectEiPNS_13StringMatcherER10UErrorCode(ptr noundef nonnull align 8 dereferenceable(498) %0, i32 noundef %1, ptr noundef %2, ptr noundef nonnull align 4 dereferenceable(4) %3) #1 align 2 {
  %5 = alloca ptr, align 8
  %6 = alloca i32, align 4
  %7 = alloca ptr, align 8
  %8 = alloca ptr, align 8
  %9 = alloca i32, align 4
  %10 = alloca i32, align 4
  store ptr %0, ptr %5, align 8, !tbaa !71
  store i32 %1, ptr %6, align 4, !tbaa !14
  store ptr %2, ptr %7, align 8, !tbaa !93
  store ptr %3, ptr %8, align 8, !tbaa !22
  %11 = load ptr, ptr %5, align 8
  %12 = getelementptr inbounds nuw %"class.icu_77::TransliteratorParser", ptr %11, i32 0, i32 12
  %13 = call noundef i32 @_ZNK6icu_777UVector4sizeEv(ptr noundef nonnull align 8 dereferenceable(40) %12)
  %14 = load i32, ptr %6, align 4, !tbaa !14
  %15 = icmp slt i32 %13, %14
  br i1 %15, label %16, label %20

16:                                               ; preds = %4
  %17 = getelementptr inbounds nuw %"class.icu_77::TransliteratorParser", ptr %11, i32 0, i32 12
  %18 = load i32, ptr %6, align 4, !tbaa !14
  %19 = load ptr, ptr %8, align 8, !tbaa !22
  call void @_ZN6icu_777UVector7setSizeEiR10UErrorCode(ptr noundef nonnull align 8 dereferenceable(40) %17, i32 noundef %18, ptr noundef nonnull align 4 dereferenceable(4) %19)
  br label %20

20:                                               ; preds = %16, %4
  %21 = load ptr, ptr %8, align 8, !tbaa !22
  %22 = load i32, ptr %21, align 4, !tbaa !15
  %23 = call noundef signext i8 @_ZL9U_FAILURE10UErrorCode(i32 noundef %22)
  %24 = icmp ne i8 %23, 0
  br i1 %24, label %25, label %26

25:                                               ; preds = %20
  br label %65

26:                                               ; preds = %20
  call void @llvm.lifetime.start.p0(i64 4, ptr %9) #11
  %27 = load i32, ptr %6, align 4, !tbaa !14
  %28 = load ptr, ptr %8, align 8, !tbaa !22
  %29 = call noundef zeroext i16 @_ZN6icu_7720TransliteratorParser17getSegmentStandinEiR10UErrorCode(ptr noundef nonnull align 8 dereferenceable(498) %11, i32 noundef %27, ptr noundef nonnull align 4 dereferenceable(4) %28)
  %30 = zext i16 %29 to i32
  %31 = getelementptr inbounds nuw %"class.icu_77::TransliteratorParser", ptr %11, i32 0, i32 4
  %32 = load ptr, ptr %31, align 8, !tbaa !88
  %33 = getelementptr inbounds nuw %"class.icu_77::TransliterationRuleData", ptr %32, i32 0, i32 5
  %34 = load i16, ptr %33, align 2, !tbaa !50
  %35 = zext i16 %34 to i32
  %36 = sub nsw i32 %30, %35
  store i32 %36, ptr %9, align 4, !tbaa !14
  %37 = getelementptr inbounds nuw %"class.icu_77::TransliteratorParser", ptr %11, i32 0, i32 12
  %38 = load i32, ptr %6, align 4, !tbaa !14
  %39 = sub nsw i32 %38, 1
  %40 = call noundef ptr @_ZNK6icu_777UVector9elementAtEi(ptr noundef nonnull align 8 dereferenceable(40) %37, i32 noundef %39)
  %41 = icmp ne ptr %40, null
  br i1 %41, label %47, label %42

42:                                               ; preds = %26
  %43 = getelementptr inbounds nuw %"class.icu_77::TransliteratorParser", ptr %11, i32 0, i32 9
  %44 = load i32, ptr %9, align 4, !tbaa !14
  %45 = call noundef ptr @_ZNK6icu_777UVector9elementAtEi(ptr noundef nonnull align 8 dereferenceable(40) %43, i32 noundef %44)
  %46 = icmp ne ptr %45, null
  br i1 %46, label %47, label %55

47:                                               ; preds = %42, %26
  %48 = load ptr, ptr %8, align 8, !tbaa !22
  %49 = load i32, ptr %48, align 4, !tbaa !15
  %50 = call noundef signext i8 @_ZL9U_SUCCESS10UErrorCode(i32 noundef %49)
  %51 = icmp ne i8 %50, 0
  br i1 %51, label %52, label %54

52:                                               ; preds = %47
  %53 = load ptr, ptr %8, align 8, !tbaa !22
  store i32 65568, ptr %53, align 4, !tbaa !15
  br label %54

54:                                               ; preds = %52, %47
  store i32 1, ptr %10, align 4
  br label %63

55:                                               ; preds = %42
  %56 = getelementptr inbounds nuw %"class.icu_77::TransliteratorParser", ptr %11, i32 0, i32 12
  %57 = load ptr, ptr %7, align 8, !tbaa !93
  %58 = load i32, ptr %6, align 4, !tbaa !14
  %59 = sub nsw i32 %58, 1
  call void @_ZN6icu_777UVector12setElementAtEPvi(ptr noundef nonnull align 8 dereferenceable(40) %56, ptr noundef %57, i32 noundef %59)
  %60 = getelementptr inbounds nuw %"class.icu_77::TransliteratorParser", ptr %11, i32 0, i32 9
  %61 = load ptr, ptr %7, align 8, !tbaa !93
  %62 = load i32, ptr %9, align 4, !tbaa !14
  call void @_ZN6icu_777UVector12setElementAtEPvi(ptr noundef nonnull align 8 dereferenceable(40) %60, ptr noundef %61, i32 noundef %62)
  store i32 0, ptr %10, align 4
  br label %63

63:                                               ; preds = %55, %54
  call void @llvm.lifetime.end.p0(i64 4, ptr %9) #11
  %64 = load i32, ptr %10, align 4
  switch i32 %64, label %66 [
    i32 0, label %65
    i32 1, label %65
  ]

65:                                               ; preds = %25, %63, %63
  ret void

66:                                               ; preds = %63
  unreachable
}