; Function Attrs: mustprogress uwtable
define void @_ZN6icu_7720TransliteratorParser16setSegmentObjectEiPNS_13StringMatcherER10UErrorCode(ptr noundef nonnull align 8 dereferenceable(498) %0, i32 noundef %1, ptr noundef %2, ptr noundef nonnull align 4 dereferenceable(4) %3) local_unnamed_addr #1 align 2 {
  %5 = getelementptr inbounds nuw i8, ptr %0, i64 384
  %6 = getelementptr inbounds nuw i8, ptr %0, i64 392
  %7 = load i32, ptr %6, align 8, !tbaa !38
  %8 = icmp slt i32 %7, %1
  br i1 %8, label %9, label %10

9:                                                ; preds = %4
  tail call void @_ZN6icu_777UVector7setSizeEiR10UErrorCode(ptr noundef nonnull align 8 dereferenceable(40) %5, i32 noundef %1, ptr noundef nonnull align 4 dereferenceable(4) %3)
  br label %10

10:                                               ; preds = %9, %4
  %11 = load i32, ptr %3, align 4, !tbaa !13
  %12 = icmp slt i32 %11, 1
  br i1 %12, label %13, label %32

13:                                               ; preds = %10
  %14 = tail call noundef zeroext i16 @_ZN6icu_7720TransliteratorParser17getSegmentStandinEiR10UErrorCode(ptr noundef nonnull align 8 dereferenceable(498) %0, i32 noundef %1, ptr noundef nonnull align 4 dereferenceable(4) %3)
  %15 = zext i16 %14 to i32
  %16 = getelementptr inbounds nuw i8, ptr %0, i64 96
  %17 = load ptr, ptr %16, align 8, !tbaa !66
  %18 = getelementptr inbounds nuw i8, ptr %17, i64 1162
  %19 = load i16, ptr %18, align 2, !tbaa !31
  %20 = zext i16 %19 to i32
  %21 = sub nsw i32 %15, %20
  %22 = add nsw i32 %1, -1
  %23 = tail call noundef ptr @_ZNK6icu_777UVector9elementAtEi(ptr noundef nonnull align 8 dereferenceable(40) %5, i32 noundef %22)
  %.not14 = icmp eq ptr %23, null
  br i1 %.not14, label %24, label %27

24:                                               ; preds = %13
  %25 = getelementptr inbounds nuw i8, ptr %0, i64 192
  %26 = tail call noundef ptr @_ZNK6icu_777UVector9elementAtEi(ptr noundef nonnull align 8 dereferenceable(40) %25, i32 noundef %21)
  %.not15 = icmp eq ptr %26, null
  br i1 %.not15, label %31, label %27

27:                                               ; preds = %24, %13
  %28 = load i32, ptr %3, align 4, !tbaa !13
  %29 = icmp sgt i32 %28, 0
  br i1 %29, label %32, label %30

30:                                               ; preds = %27
  store i32 65568, ptr %3, align 4, !tbaa !13
  br label %32

31:                                               ; preds = %24
  tail call void @_ZN6icu_777UVector12setElementAtEPvi(ptr noundef nonnull align 8 dereferenceable(40) %5, ptr noundef %2, i32 noundef %22)
  tail call void @_ZN6icu_777UVector12setElementAtEPvi(ptr noundef nonnull align 8 dereferenceable(40) %25, ptr noundef %2, i32 noundef %21)
  br label %32

32:                                               ; preds = %31, %30, %27, %10
  ret void
}